target datalayout = "e-m:e-p270:32:32-p271:32:32-p272:64:64-i64:64-i128:128-f80:128-n8:16:32:64-S128"
target triple = "x86_64-pc-linux-gnu"

@g_ascii_table = external constant ptr, align 8
@.str.32 = private unnamed_addr constant [7 x i8] c"\\x%02x\00", align 1

; Function Attrs: null_pointer_is_valid sspstrong uwtable
define hidden ptr @uat_esc(ptr noundef %0, i32 noundef %1) #0 {
  %3 = alloca ptr, align 8
  %4 = alloca i32, align 4
  %5 = alloca ptr, align 8
  %6 = alloca ptr, align 8
  %7 = alloca ptr, align 8
  %8 = alloca ptr, align 8
  store ptr %0, ptr %3, align 8
  store i32 %1, ptr %4, align 4
  call void @llvm.lifetime.start.p0(i64 8, ptr %5) #13
  %9 = load ptr, ptr %3, align 8
  %10 = load i32, ptr %4, align 4
  %11 = zext i32 %10 to i64
  %12 = getelementptr i8, ptr %9, i64 %11
  store ptr %12, ptr %5, align 8
  call void @llvm.lifetime.start.p0(i64 8, ptr %6) #13
  %13 = load i32, ptr %4, align 4
  %14 = mul i32 4, %13
  %15 = add i32 %14, 1
  %16 = zext i32 %15 to i64
  %17 = call noalias ptr @g_malloc0(i64 noundef %16) #14
  store ptr %17, ptr %6, align 8
  call void @llvm.lifetime.start.p0(i64 8, ptr %7) #13
  call void @llvm.lifetime.start.p0(i64 8, ptr %8) #13
  %18 = load ptr, ptr %6, align 8
  store ptr %18, ptr %8, align 8
  %19 = load ptr, ptr %3, align 8
  store ptr %19, ptr %7, align 8
  br label %20

20:                                               ; preds = %60, %2
  %21 = load ptr, ptr %7, align 8
  %22 = load ptr, ptr %5, align 8
  %23 = icmp ult ptr %21, %22
  br i1 %23, label %24, label %63

24:                                               ; preds = %20
  %25 = load ptr, ptr %7, align 8
  %26 = load i8, ptr %25, align 1
  %27 = zext i8 %26 to i32
  %28 = icmp eq i32 %27, 34
  br i1 %28, label %44, label %29

29:                                               ; preds = %24
  %30 = load ptr, ptr %7, align 8
  %31 = load i8, ptr %30, align 1
  %32 = zext i8 %31 to i32
  %33 = icmp eq i32 %32, 92
  br i1 %33, label %44, label %34

34:                                               ; preds = %29
  %35 = load ptr, ptr @g_ascii_table, align 8
  %36 = load ptr, ptr %7, align 8
  %37 = load i8, ptr %36, align 1
  %38 = zext i8 %37 to i64
  %39 = getelementptr i16, ptr %35, i64 %38
  %40 = load i16, ptr %39, align 2
  %41 = zext i16 %40 to i32
  %42 = and i32 %41, 64
  %43 = icmp ne i32 %42, 0
  br i1 %43, label %54, label %44

44:                                               ; preds = %34, %29, %24
  %45 = load ptr, ptr %8, align 8
  %46 = load ptr, ptr %8, align 8
  %47 = call i64 @llvm.objectsize.i64.p0(ptr %46, i1 false, i1 true, i1 true)
  %48 = load ptr, ptr %7, align 8
  %49 = load i8, ptr %48, align 1
  %50 = zext i8 %49 to i32
  %51 = call i32 (ptr, i64, i32, i64, ptr, ...) @__snprintf_chk(ptr noundef %45, i64 noundef 5, i32 noundef 2, i64 noundef %47, ptr noundef @.str.32, i32 noundef %50)
  %52 = load ptr, ptr %8, align 8
  %53 = getelementptr i8, ptr %52, i64 4
  store ptr %53, ptr %8, align 8
  br label %59

54:                                               ; preds = %34
  %55 = load ptr, ptr %7, align 8
  %56 = load i8, ptr %55, align 1
  %57 = load ptr, ptr %8, align 8
  %58 = getelementptr i8, ptr %57, i32 1
  store ptr %58, ptr %8, align 8
  store i8 %56, ptr %57, align 1
  br label %59

59:                                               ; preds = %54, %44
  br label %60

60:                                               ; preds = %59
  %61 = load ptr, ptr %7, align 8
  %62 = getelementptr i8, ptr %61, i32 1
  store ptr %62, ptr %7, align 8
  br label %20, !llvm.loop !35

63:                                               ; preds = %20
  %64 = load ptr, ptr %6, align 8
  call void @llvm.lifetime.end.p0(i64 8, ptr %8) #13
  call void @llvm.lifetime.end.p0(i64 8, ptr %7) #13
  call void @llvm.lifetime.end.p0(i64 8, ptr %6) #13
  call void @llvm.lifetime.end.p0(i64 8, ptr %5) #13
  ret ptr %64
}