; Function Attrs: null_pointer_is_valid sspstrong uwtable
define hidden ptr @uat_esc(ptr noundef readonly captures(address) %0, i32 noundef %1) local_unnamed_addr #0 {
  %3 = zext i32 %1 to i64
  %4 = getelementptr i8, ptr %0, i64 %3
  %5 = shl i32 %1, 2
  %6 = or disjoint i32 %5, 1
  %7 = zext i32 %6 to i64
  %8 = tail call noalias ptr @g_malloc0(i64 noundef %7) #16
  %9 = icmp ult ptr %0, %4
  br i1 %9, label %.lr.ph, label %._crit_edge

.lr.ph:                                           ; preds = %2
  %10 = load ptr, ptr @g_ascii_table, align 8
  br label %11

11:                                               ; preds = %.lr.ph, %28
  %.020 = phi ptr [ %8, %.lr.ph ], [ %.1, %28 ]
  %12 = phi i64 [ 0, %.lr.ph ], [ %29, %28 ]
  %.01719 = phi ptr [ %0, %.lr.ph ], [ %30, %28 ]
  %13 = load i8, ptr %.01719, align 1
  switch i8 %13, label %14 [
    i8 34, label %19
    i8 92, label %19
  ]

14:                                               ; preds = %11
  %15 = zext i8 %13 to i64
  %16 = getelementptr i16, ptr %10, i64 %15
  %17 = load i16, ptr %16, align 2
  %18 = and i16 %17, 64
  %.not = icmp eq i16 %18, 0
  br i1 %.not, label %19, label %25

19:                                               ; preds = %11, %11, %14
  %20 = tail call i64 @llvm.usub.sat.i64(i64 %7, i64 %12)
  %21 = zext i8 %13 to i32
  %22 = tail call i32 (ptr, i64, i32, i64, ptr, ...) @__snprintf_chk(ptr noundef %.020, i64 noundef 5, i32 noundef 2, i64 noundef %20, ptr noundef nonnull @.str.32, i32 noundef %21)
  %23 = add i64 %12, 4
  %24 = getelementptr i8, ptr %.020, i64 4
  br label %28

25:                                               ; preds = %14
  %26 = add i64 %12, 1
  %27 = getelementptr i8, ptr %.020, i64 1
  store i8 %13, ptr %.020, align 1
  br label %28

28:                                               ; preds = %19, %25
  %29 = phi i64 [ %23, %19 ], [ %26, %25 ]
  %.1 = phi ptr [ %24, %19 ], [ %27, %25 ]
  %30 = getelementptr i8, ptr %.01719, i64 1
  %exitcond.not = icmp eq ptr %30, %4
  br i1 %exitcond.not, label %._crit_edge, label %11, !llvm.loop !36

._crit_edge:                                      ; preds = %28, %2
  ret ptr %8
}